target datalayout = "e-m:e-p270:32:32-p271:32:32-p272:64:64-i64:64-i128:128-f80:128-n8:16:32:64-S128"
target triple = "x86_64-pc-linux-gnu"

%struct.expert_field = type { i32, i32 }
%struct._packet_info = type { ptr, ptr, i32, i32, %struct.nstime_t, %struct.nstime_t, %struct.nstime_t, i8, ptr, ptr, ptr, ptr, %struct._address, %struct._address, %struct._address, %struct._address, %struct._address, %struct._address, i32, ptr, i8, [3 x i8], %struct.anon, i32, i32, i32, i32, ptr, i8, ptr, ptr, i16, i16, i32, i32, i16, i32, i32, ptr, ptr, ptr, i8, i8, i16, i16, i16, i32, i16, i16, ptr, ptr, ptr, ptr, ptr, i32, i32 }
%struct.nstime_t = type { i64, i32 }
%struct._address = type { i32, i32, ptr, ptr }
%struct.anon = type { i8, [3 x i8] }
%struct._tftp_conv_info_t = type { i16, ptr, ptr, i32, i8, i8, i16, i16, i32, i8, i32, i8, i32, ptr, i32, i32, i8 }

@hf_tftp_option_name = internal global i32 0, align 4
@hf_tftp_option_value = internal global i32 0, align 4
@ett_tftp_option = internal global i32 0, align 4
@ei_tftp_blocksize_range = internal global %struct.expert_field zeroinitializer, align 4
@ei_tftp_windowsize_range = internal global %struct.expert_field zeroinitializer, align 4
@ei_tftp_msftwindow_unrecognized = internal global %struct.expert_field zeroinitializer, align 4
@.str.126 = private unnamed_addr constant [16 x i8] c"Option: %s = %s\00", align 1
@.str.127 = private unnamed_addr constant [8 x i8] c", %s=%s\00", align 1
@.str.128 = private unnamed_addr constant [11 x i8] c"msftwindow\00", align 1
@.str.129 = private unnamed_addr constant [6 x i8] c"31416\00", align 1
@.str.130 = private unnamed_addr constant [11 x i8] c"windowsize\00", align 1
@.str.131 = private unnamed_addr constant [6 x i8] c"tsize\00", align 1
@.str.132 = private unnamed_addr constant [8 x i8] c"blksize\00", align 1
@.str.133 = private unnamed_addr constant [6 x i8] c"27182\00", align 1

; Function Attrs: null_pointer_is_valid sspstrong uwtable
define internal void @tftp_dissect_options(ptr noundef %0, ptr noundef %1, i32 noundef %2, ptr noundef %3, i16 noundef zeroext %4, ptr noundef %5) #0 {
  %7 = alloca ptr, align 8
  %8 = alloca ptr, align 8
  %9 = alloca i32, align 4
  %10 = alloca ptr, align 8
  %11 = alloca i16, align 2
  %12 = alloca ptr, align 8
  %13 = alloca i32, align 4
  %14 = alloca i32, align 4
  %15 = alloca i32, align 4
  %16 = alloca ptr, align 8
  %17 = alloca ptr, align 8
  %18 = alloca ptr, align 8
  %19 = alloca i32, align 4
  %20 = alloca i32, align 4
  %21 = alloca i32, align 4
  store ptr %0, ptr %7, align 8
  store ptr %1, ptr %8, align 8
  store i32 %2, ptr %9, align 4
  store ptr %3, ptr %10, align 8
  store i16 %4, ptr %11, align 2
  store ptr %5, ptr %12, align 8
  call void @llvm.lifetime.start.p0(i64 4, ptr %13) #12
  call void @llvm.lifetime.start.p0(i64 4, ptr %14) #12
  call void @llvm.lifetime.start.p0(i64 4, ptr %15) #12
  call void @llvm.lifetime.start.p0(i64 8, ptr %16) #12
  call void @llvm.lifetime.start.p0(i64 8, ptr %17) #12
  call void @llvm.lifetime.start.p0(i64 8, ptr %18) #12
  br label %22

22:                                               ; preds = %206, %6
  %23 = load ptr, ptr %7, align 8
  %24 = load i32, ptr %9, align 4
  %25 = call zeroext i1 @tvb_offset_exists(ptr noundef %23, i32 noundef %24)
  br i1 %25, label %26, label %207

26:                                               ; preds = %22
  %27 = load ptr, ptr %7, align 8
  %28 = load i32, ptr %9, align 4
  %29 = call i32 @tvb_strsize(ptr noundef %27, i32 noundef %28)
  store i32 %29, ptr %13, align 4
  %30 = load i32, ptr %9, align 4
  %31 = load i32, ptr %13, align 4
  %32 = add i32 %30, %31
  store i32 %32, ptr %15, align 4
  %33 = load ptr, ptr %7, align 8
  %34 = load i32, ptr %15, align 4
  %35 = call i32 @tvb_strsize(ptr noundef %33, i32 noundef %34)
  store i32 %35, ptr %14, align 4
  %36 = load ptr, ptr %8, align 8
  %37 = getelementptr inbounds nuw %struct._packet_info, ptr %36, i32 0, i32 51
  %38 = load ptr, ptr %37, align 8
  %39 = load ptr, ptr %7, align 8
  %40 = load i32, ptr %9, align 4
  %41 = load i32, ptr %13, align 4
  %42 = sub i32 %41, 1
  %43 = call ptr @tvb_format_text(ptr noundef %38, ptr noundef %39, i32 noundef %40, i32 noundef %42)
  store ptr %43, ptr %16, align 8
  %44 = load ptr, ptr %8, align 8
  %45 = getelementptr inbounds nuw %struct._packet_info, ptr %44, i32 0, i32 51
  %46 = load ptr, ptr %45, align 8
  %47 = load ptr, ptr %7, align 8
  %48 = load i32, ptr %15, align 4
  %49 = load i32, ptr %14, align 4
  %50 = sub i32 %49, 1
  %51 = call ptr @tvb_format_text(ptr noundef %46, ptr noundef %47, i32 noundef %48, i32 noundef %50)
  store ptr %51, ptr %17, align 8
  %52 = load ptr, ptr %10, align 8
  %53 = load ptr, ptr %7, align 8
  %54 = load i32, ptr %9, align 4
  %55 = load i32, ptr %13, align 4
  %56 = load i32, ptr %14, align 4
  %57 = add i32 %55, %56
  %58 = load i32, ptr @ett_tftp_option, align 4
  %59 = load ptr, ptr %16, align 8
  %60 = load ptr, ptr %17, align 8
  %61 = call ptr (ptr, ptr, i32, i32, i32, ptr, ptr, ...) @proto_tree_add_subtree_format(ptr noundef %52, ptr noundef %53, i32 noundef %54, i32 noundef %57, i32 noundef %58, ptr noundef null, ptr noundef @.str.126, ptr noundef %59, ptr noundef %60)
  store ptr %61, ptr %18, align 8
  %62 = load ptr, ptr %18, align 8
  %63 = load i32, ptr @hf_tftp_option_name, align 4
  %64 = load ptr, ptr %7, align 8
  %65 = load i32, ptr %9, align 4
  %66 = load i32, ptr %13, align 4
  %67 = call ptr @proto_tree_add_item(ptr noundef %62, i32 noundef %63, ptr noundef %64, i32 noundef %65, i32 noundef %66, i32 noundef 0)
  %68 = load ptr, ptr %18, align 8
  %69 = load i32, ptr @hf_tftp_option_value, align 4
  %70 = load ptr, ptr %7, align 8
  %71 = load i32, ptr %15, align 4
  %72 = load i32, ptr %14, align 4
  %73 = call ptr @proto_tree_add_item(ptr noundef %68, i32 noundef %69, ptr noundef %70, i32 noundef %71, i32 noundef %72, i32 noundef 0)
  %74 = load i32, ptr %13, align 4
  %75 = load i32, ptr %14, align 4
  %76 = add i32 %74, %75
  %77 = load i32, ptr %9, align 4
  %78 = add i32 %77, %76
  store i32 %78, ptr %9, align 4
  %79 = load ptr, ptr %8, align 8
  %80 = getelementptr inbounds nuw %struct._packet_info, ptr %79, i32 0, i32 1
  %81 = load ptr, ptr %80, align 8
  %82 = load ptr, ptr %16, align 8
  %83 = load ptr, ptr %17, align 8
  call void (ptr, i32, ptr, ...) @col_append_fstr(ptr noundef %81, i32 noundef 25, ptr noundef @.str.127, ptr noundef %82, ptr noundef %83)
  %84 = load i16, ptr %11, align 2
  %85 = zext i16 %84 to i32
  %86 = icmp eq i32 %85, 1
  br i1 %86, label %91, label %87

87:                                               ; preds = %26
  %88 = load i16, ptr %11, align 2
  %89 = zext i16 %88 to i32
  %90 = icmp eq i32 %89, 2
  br i1 %90, label %91, label %136

91:                                               ; preds = %87, %26
  %92 = load ptr, ptr %16, align 8
  %93 = call i32 @g_ascii_strcasecmp(ptr noundef %92, ptr noundef @.str.128)
  %94 = icmp ne i32 %93, 0
  br i1 %94, label %104, label %95

95:                                               ; preds = %91
  %96 = load ptr, ptr %17, align 8
  %97 = call i32 @g_strcmp0(ptr noundef %96, ptr noundef @.str.129)
  %98 = icmp ne i32 %97, 0
  br i1 %98, label %99, label %103

99:                                               ; preds = %95
  %100 = load ptr, ptr %8, align 8
  %101 = load ptr, ptr %18, align 8
  %102 = call ptr @expert_add_info(ptr noundef %100, ptr noundef %101, ptr noundef @ei_tftp_msftwindow_unrecognized)
  br label %103

103:                                              ; preds = %99, %95
  br label %135

104:                                              ; preds = %91
  %105 = load ptr, ptr %16, align 8
  %106 = call i32 @g_ascii_strcasecmp(ptr noundef %105, ptr noundef @.str.130)
  %107 = icmp ne i32 %106, 0
  br i1 %107, label %122, label %108

108:                                              ; preds = %104
  call void @llvm.lifetime.start.p0(i64 4, ptr %19) #12
  %109 = load ptr, ptr %17, align 8
  %110 = call i64 @strtol(ptr noundef %109, ptr noundef null, i32 noundef 10) #12
  %111 = trunc i64 %110 to i32
  store i32 %111, ptr %19, align 4
  %112 = load i32, ptr %19, align 4
  %113 = icmp slt i32 %112, 1
  br i1 %113, label %117, label %114

114:                                              ; preds = %108
  %115 = load i32, ptr %19, align 4
  %116 = icmp sgt i32 %115, 65535
  br i1 %116, label %117, label %121

117:                                              ; preds = %114, %108
  %118 = load ptr, ptr %8, align 8
  %119 = load ptr, ptr %18, align 8
  %120 = call ptr @expert_add_info(ptr noundef %118, ptr noundef %119, ptr noundef @ei_tftp_windowsize_range)
  br label %121

121:                                              ; preds = %117, %114
  call void @llvm.lifetime.end.p0(i64 4, ptr %19) #12
  br label %134

122:                                              ; preds = %104
  %123 = load ptr, ptr %16, align 8
  %124 = call i32 @g_ascii_strcasecmp(ptr noundef %123, ptr noundef @.str.131)
  %125 = icmp ne i32 %124, 0
  br i1 %125, label %133, label %126

126:                                              ; preds = %122
  %127 = load i16, ptr %11, align 2
  %128 = zext i16 %127 to i32
  %129 = icmp eq i32 %128, 1
  br i1 %129, label %130, label %133

130:                                              ; preds = %126
  %131 = load ptr, ptr %12, align 8
  %132 = getelementptr inbounds nuw %struct._tftp_conv_info_t, ptr %131, i32 0, i32 4
  store i8 1, ptr %132, align 4
  br label %133

133:                                              ; preds = %130, %126, %122
  br label %134

134:                                              ; preds = %133, %121
  br label %135

135:                                              ; preds = %134, %103
  br label %206

136:                                              ; preds = %87
  %137 = load i16, ptr %11, align 2
  %138 = zext i16 %137 to i32
  %139 = icmp eq i32 %138, 6
  br i1 %139, label %140, label %205

140:                                              ; preds = %136
  %141 = load ptr, ptr %16, align 8
  %142 = call i32 @g_ascii_strcasecmp(ptr noundef %141, ptr noundef @.str.132)
  %143 = icmp ne i32 %142, 0
  br i1 %143, label %163, label %144

144:                                              ; preds = %140
  call void @llvm.lifetime.start.p0(i64 4, ptr %20) #12
  %145 = load ptr, ptr %17, align 8
  %146 = call i64 @strtol(ptr noundef %145, ptr noundef null, i32 noundef 10) #12
  %147 = trunc i64 %146 to i32
  store i32 %147, ptr %20, align 4
  %148 = load i32, ptr %20, align 4
  %149 = icmp slt i32 %148, 8
  br i1 %149, label %153, label %150

150:                                              ; preds = %144
  %151 = load i32, ptr %20, align 4
  %152 = icmp sgt i32 %151, 65464
  br i1 %152, label %153, label %157

153:                                              ; preds = %150, %144
  %154 = load ptr, ptr %8, align 8
  %155 = load ptr, ptr %18, align 8
  %156 = call ptr @expert_add_info(ptr noundef %154, ptr noundef %155, ptr noundef @ei_tftp_blocksize_range)
  br label %162

157:                                              ; preds = %150
  %158 = load i32, ptr %20, align 4
  %159 = trunc i32 %158 to i16
  %160 = load ptr, ptr %12, align 8
  %161 = getelementptr inbounds nuw %struct._tftp_conv_info_t, ptr %160, i32 0, i32 0
  store i16 %159, ptr %161, align 8
  br label %162

162:                                              ; preds = %157, %153
  call void @llvm.lifetime.end.p0(i64 4, ptr %20) #12
  br label %204

163:                                              ; preds = %140
  %164 = load ptr, ptr %16, align 8
  %165 = call i32 @g_ascii_strcasecmp(ptr noundef %164, ptr noundef @.str.130)
  %166 = icmp ne i32 %165, 0
  br i1 %166, label %186, label %167

167:                                              ; preds = %163
  call void @llvm.lifetime.start.p0(i64 4, ptr %21) #12
  %168 = load ptr, ptr %17, align 8
  %169 = call i64 @strtol(ptr noundef %168, ptr noundef null, i32 noundef 10) #12
  %170 = trunc i64 %169 to i32
  store i32 %170, ptr %21, align 4
  %171 = load i32, ptr %21, align 4
  %172 = icmp slt i32 %171, 1
  br i1 %172, label %176, label %173

173:                                              ; preds = %167
  %174 = load i32, ptr %21, align 4
  %175 = icmp sgt i32 %174, 65535
  br i1 %175, label %176, label %180

176:                                              ; preds = %173, %167
  %177 = load ptr, ptr %8, align 8
  %178 = load ptr, ptr %18, align 8
  %179 = call ptr @expert_add_info(ptr noundef %177, ptr noundef %178, ptr noundef @ei_tftp_windowsize_range)
  br label %185

180:                                              ; preds = %173
  %181 = load i32, ptr %21, align 4
  %182 = trunc i32 %181 to i16
  %183 = load ptr, ptr %12, align 8
  %184 = getelementptr inbounds nuw %struct._tftp_conv_info_t, ptr %183, i32 0, i32 6
  store i16 %182, ptr %184, align 2
  br label %185

185:                                              ; preds = %180, %176
  call void @llvm.lifetime.end.p0(i64 4, ptr %21) #12
  br label %203

186:                                              ; preds = %163
  %187 = load ptr, ptr %16, align 8
  %188 = call i32 @g_ascii_strcasecmp(ptr noundef %187, ptr noundef @.str.128)
  %189 = icmp ne i32 %188, 0
  br i1 %189, label %202, label %190

190:                                              ; preds = %186
  %191 = load ptr, ptr %17, align 8
  %192 = call i32 @g_strcmp0(ptr noundef %191, ptr noundef @.str.133)
  %193 = icmp ne i32 %192, 0
  br i1 %193, label %197, label %194

194:                                              ; preds = %190
  %195 = load ptr, ptr %12, align 8
  %196 = getelementptr inbounds nuw %struct._tftp_conv_info_t, ptr %195, i32 0, i32 5
  store i8 1, ptr %196, align 1
  br label %201

197:                                              ; preds = %190
  %198 = load ptr, ptr %8, align 8
  %199 = load ptr, ptr %18, align 8
  %200 = call ptr @expert_add_info(ptr noundef %198, ptr noundef %199, ptr noundef @ei_tftp_msftwindow_unrecognized)
  br label %201

201:                                              ; preds = %197, %194
  br label %202

202:                                              ; preds = %201, %186
  br label %203

203:                                              ; preds = %202, %185
  br label %204

204:                                              ; preds = %203, %162
  br label %205

205:                                              ; preds = %204, %136
  br label %206

206:                                              ; preds = %205, %135
  br label %22, !llvm.loop !11

207:                                              ; preds = %22
  call void @llvm.lifetime.end.p0(i64 8, ptr %18) #12
  call void @llvm.lifetime.end.p0(i64 8, ptr %17) #12
  call void @llvm.lifetime.end.p0(i64 8, ptr %16) #12
  call void @llvm.lifetime.end.p0(i64 4, ptr %15) #12
  call void @llvm.lifetime.end.p0(i64 4, ptr %14) #12
  call void @llvm.lifetime.end.p0(i64 4, ptr %13) #12
  ret void
}