; Function Attrs: null_pointer_is_valid sspstrong uwtable
define internal fastcc void @tftp_dissect_options(ptr noundef %0, ptr noundef %1, i32 noundef %2, ptr noundef %3, i16 noundef zeroext %4, ptr noundef writeonly captures(none) %5) unnamed_addr #0 {
  %7 = tail call zeroext i1 @tvb_offset_exists(ptr noundef %0, i32 noundef %2)
  br i1 %7, label %.lr.ph, label %._crit_edge

.lr.ph:                                           ; preds = %6
  %8 = getelementptr inbounds nuw i8, ptr %1, i64 408
  %9 = getelementptr inbounds nuw i8, ptr %1, i64 8
  %10 = icmp eq i16 %4, 1
  %11 = add i16 %4, -1
  %or.cond = icmp ult i16 %11, 2
  %12 = icmp eq i16 %4, 6
  %13 = getelementptr inbounds nuw i8, ptr %5, i64 29
  %14 = getelementptr inbounds nuw i8, ptr %5, i64 30
  %15 = getelementptr inbounds nuw i8, ptr %5, i64 28
  br label %16

16:                                               ; preds = %.lr.ph, %81
  %.093 = phi i32 [ %2, %.lr.ph ], [ %33, %81 ]
  %17 = tail call i32 @tvb_strsize(ptr noundef %0, i32 noundef %.093)
  %18 = add i32 %17, %.093
  %19 = tail call i32 @tvb_strsize(ptr noundef %0, i32 noundef %18)
  %20 = load ptr, ptr %8, align 8
  %21 = add i32 %17, -1
  %22 = tail call ptr @tvb_format_text(ptr noundef %20, ptr noundef %0, i32 noundef %.093, i32 noundef %21)
  %23 = load ptr, ptr %8, align 8
  %24 = add i32 %19, -1
  %25 = tail call ptr @tvb_format_text(ptr noundef %23, ptr noundef %0, i32 noundef %18, i32 noundef %24)
  %26 = add i32 %19, %17
  %27 = load i32, ptr @ett_tftp_option, align 4
  %28 = tail call ptr (ptr, ptr, i32, i32, i32, ptr, ptr, ...) @proto_tree_add_subtree_format(ptr noundef %3, ptr noundef %0, i32 noundef %.093, i32 noundef %26, i32 noundef %27, ptr noundef null, ptr noundef nonnull @.str.126, ptr noundef %22, ptr noundef %25)
  %29 = load i32, ptr @hf_tftp_option_name, align 4
  %30 = tail call ptr @proto_tree_add_item(ptr noundef %28, i32 noundef %29, ptr noundef %0, i32 noundef %.093, i32 noundef %17, i32 noundef 0)
  %31 = load i32, ptr @hf_tftp_option_value, align 4
  %32 = tail call ptr @proto_tree_add_item(ptr noundef %28, i32 noundef %31, ptr noundef %0, i32 noundef %18, i32 noundef %19, i32 noundef 0)
  %33 = add i32 %26, %.093
  %34 = load ptr, ptr %9, align 8
  tail call void (ptr, i32, ptr, ...) @col_append_fstr(ptr noundef %34, i32 noundef 25, ptr noundef nonnull @.str.127, ptr noundef %22, ptr noundef %25)
  br i1 %or.cond, label %35, label %53

35:                                               ; preds = %16
  %36 = tail call i32 @g_ascii_strcasecmp(ptr noundef %22, ptr noundef nonnull @.str.128)
  %.not90 = icmp eq i32 %36, 0
  br i1 %.not90, label %37, label %41

37:                                               ; preds = %35
  %38 = tail call i32 @g_strcmp0(ptr noundef %25, ptr noundef nonnull @.str.129)
  %.not91 = icmp eq i32 %38, 0
  br i1 %.not91, label %81, label %39

39:                                               ; preds = %37
  %40 = tail call ptr @expert_add_info(ptr noundef %1, ptr noundef %28, ptr noundef nonnull @ei_tftp_msftwindow_unrecognized)
  br label %81

41:                                               ; preds = %35
  %42 = tail call i32 @g_ascii_strcasecmp(ptr noundef %22, ptr noundef nonnull @.str.130)
  %.not92 = icmp eq i32 %42, 0
  br i1 %.not92, label %43, label %49

43:                                               ; preds = %41
  %44 = tail call i64 @strtol(ptr noundef captures(none) %25, ptr noundef null, i32 noundef 10) #10
  %45 = trunc i64 %44 to i32
  %46 = add i32 %45, -65536
  %or.cond4 = icmp ult i32 %46, -65535
  br i1 %or.cond4, label %47, label %81

47:                                               ; preds = %43
  %48 = tail call ptr @expert_add_info(ptr noundef %1, ptr noundef %28, ptr noundef nonnull @ei_tftp_windowsize_range)
  br label %81

49:                                               ; preds = %41
  %50 = tail call i32 @g_ascii_strcasecmp(ptr noundef %22, ptr noundef nonnull @.str.131)
  %51 = icmp eq i32 %50, 0
  %or.cond7 = and i1 %10, %51
  br i1 %or.cond7, label %52, label %81

52:                                               ; preds = %49
  store i8 1, ptr %15, align 4
  br label %81

53:                                               ; preds = %16
  br i1 %12, label %54, label %81

54:                                               ; preds = %53
  %55 = tail call i32 @g_ascii_strcasecmp(ptr noundef %22, ptr noundef nonnull @.str.132)
  %.not = icmp eq i32 %55, 0
  br i1 %.not, label %56, label %64

56:                                               ; preds = %54
  %57 = tail call i64 @strtol(ptr noundef captures(none) %25, ptr noundef null, i32 noundef 10) #10
  %58 = trunc i64 %57 to i32
  %59 = add i32 %58, -65465
  %or.cond9 = icmp ult i32 %59, -65457
  br i1 %or.cond9, label %60, label %62

60:                                               ; preds = %56
  %61 = tail call ptr @expert_add_info(ptr noundef %1, ptr noundef %28, ptr noundef nonnull @ei_tftp_blocksize_range)
  br label %81

62:                                               ; preds = %56
  %63 = trunc i64 %57 to i16
  store i16 %63, ptr %5, align 8
  br label %81

64:                                               ; preds = %54
  %65 = tail call i32 @g_ascii_strcasecmp(ptr noundef %22, ptr noundef nonnull @.str.130)
  %.not87 = icmp eq i32 %65, 0
  br i1 %.not87, label %66, label %74

66:                                               ; preds = %64
  %67 = tail call i64 @strtol(ptr noundef captures(none) %25, ptr noundef null, i32 noundef 10) #10
  %68 = trunc i64 %67 to i32
  %69 = add i32 %68, -65536
  %or.cond11 = icmp ult i32 %69, -65535
  br i1 %or.cond11, label %70, label %72

70:                                               ; preds = %66
  %71 = tail call ptr @expert_add_info(ptr noundef %1, ptr noundef %28, ptr noundef nonnull @ei_tftp_windowsize_range)
  br label %81

72:                                               ; preds = %66
  %73 = trunc i64 %67 to i16
  store i16 %73, ptr %14, align 2
  br label %81

74:                                               ; preds = %64
  %75 = tail call i32 @g_ascii_strcasecmp(ptr noundef %22, ptr noundef nonnull @.str.128)
  %.not88 = icmp eq i32 %75, 0
  br i1 %.not88, label %76, label %81

76:                                               ; preds = %74
  %77 = tail call i32 @g_strcmp0(ptr noundef %25, ptr noundef nonnull @.str.133)
  %.not89 = icmp eq i32 %77, 0
  br i1 %.not89, label %78, label %79

78:                                               ; preds = %76
  store i8 1, ptr %13, align 1
  br label %81

79:                                               ; preds = %76
  %80 = tail call ptr @expert_add_info(ptr noundef %1, ptr noundef %28, ptr noundef nonnull @ei_tftp_msftwindow_unrecognized)
  br label %81

81:                                               ; preds = %70, %72, %60, %62, %47, %43, %53, %78, %79, %74, %39, %37, %49, %52
  %82 = tail call zeroext i1 @tvb_offset_exists(ptr noundef %0, i32 noundef %33)
  br i1 %82, label %16, label %._crit_edge, !llvm.loop !11

._crit_edge:                                      ; preds = %81, %6
  ret void
}